; Function Attrs: nofree norecurse nosync nounwind memory(read, inaccessiblemem: none) uwtable
define internal i32 @callout_name_table_hash(i64 noundef %0) #8 {
  %2 = inttoptr i64 %0 to ptr
  %3 = getelementptr inbounds nuw i8, ptr %2, i64 16
  %4 = load ptr, ptr %3, align 8, !tbaa !24
  %5 = getelementptr inbounds nuw i8, ptr %2, i64 24
  %6 = load ptr, ptr %5, align 8, !tbaa !23
  %7 = icmp ult ptr %4, %6
  br i1 %7, label %.lr.ph, label %._crit_edge

.lr.ph:                                           ; preds = %1, %.lr.ph
  %.011 = phi i32 [ %12, %.lr.ph ], [ 0, %1 ]
  %.0910 = phi ptr [ %9, %.lr.ph ], [ %4, %1 ]
  %8 = mul i32 %.011, 997
  %9 = getelementptr inbounds nuw i8, ptr %.0910, i64 1
  %10 = load i8, ptr %.0910, align 1, !tbaa !10
  %11 = zext i8 %10 to i32
  %12 = add i32 %8, %11
  %exitcond.not = icmp eq ptr %9, %6
  br i1 %exitcond.not, label %._crit_edge, label %.lr.ph, !llvm.loop !26

._crit_edge:                                      ; preds = %.lr.ph, %1
  %.0.lcssa = phi i32 [ 0, %1 ], [ %12, %.lr.ph ]
  %13 = lshr i32 %.0.lcssa, 5
  %14 = add i32 %13, %.0.lcssa
  %15 = load ptr, ptr %2, align 8, !tbaa !19
  %16 = ptrtoint ptr %15 to i64
  %17 = getelementptr inbounds nuw i8, ptr %2, i64 8
  %18 = load i32, ptr %17, align 8, !tbaa !22
  %19 = trunc i64 %16 to i32
  %20 = and i32 %19, 65535
  %21 = add i32 %14, %18
  %22 = add i32 %21, %20
  ret i32 %22
}